target datalayout = "e-m:e-p270:32:32-p271:32:32-p272:64:64-i64:64-i128:128-f80:128-n8:16:32:64-S128"
target triple = "x86_64-pc-linux-gnu"

%"struct.i18n::phonenumbers::(anonymous namespace)::NumberTest" = type { %"class.std::__cxx11::basic_string", %"class.std::__cxx11::basic_string" }
%"class.std::__cxx11::basic_string" = type { %"struct.std::__cxx11::basic_string<char>::_Alloc_hider", i64, %union.anon }
%"struct.std::__cxx11::basic_string<char>::_Alloc_hider" = type { ptr }
%union.anon = type { i64, [8 x i8] }
%"class.i18n::phonenumbers::StringHolder" = type { %"class.absl::debian2::AlphaNum" }
%"class.absl::debian2::AlphaNum" = type { %"class.absl::debian2::string_view", [32 x i8] }
%"class.absl::debian2::string_view" = type { ptr, i64 }

@.str.368 = private unnamed_addr constant [3 x i8] c" (\00", align 1
@.str.401 = private unnamed_addr constant [2 x i8] c")\00", align 1

; Function Attrs: mustprogress uwtable
define internal void @_ZNK4i18n12phonenumbers12_GLOBAL__N_110NumberTest8ToStringB5cxx11Ev(ptr dead_on_unwind noalias writable sret(%"class.std::__cxx11::basic_string") align 8 %0, ptr noundef nonnull align 8 dereferenceable(64) %1) #4 align 2 personality ptr @__gxx_personality_v0 {
  %3 = alloca ptr, align 8
  %4 = alloca ptr, align 8
  %5 = alloca %"class.i18n::phonenumbers::StringHolder", align 8
  %6 = alloca %"class.i18n::phonenumbers::StringHolder", align 8
  %7 = alloca ptr, align 8
  %8 = alloca i32, align 4
  %9 = alloca %"class.i18n::phonenumbers::StringHolder", align 8
  %10 = alloca %"class.i18n::phonenumbers::StringHolder", align 8
  store ptr %0, ptr %3, align 8
  store ptr %1, ptr %4, align 8
  %11 = load ptr, ptr %4, align 8
  %12 = getelementptr inbounds %"struct.i18n::phonenumbers::(anonymous namespace)::NumberTest", ptr %11, i32 0, i32 0
  call void @_ZN4i18n12phonenumbers12StringHolderC1ERKNSt7__cxx1112basic_stringIcSt11char_traitsIcESaIcEEE(ptr noundef nonnull align 8 dereferenceable(48) %5, ptr noundef nonnull align 8 dereferenceable(32) %12)
  invoke void @_ZN4i18n12phonenumbers12StringHolderC1EPKc(ptr noundef nonnull align 8 dereferenceable(48) %6, ptr noundef @.str.368)
          to label %13 unwind label %18

13:                                               ; preds = %2
  %14 = getelementptr inbounds %"struct.i18n::phonenumbers::(anonymous namespace)::NumberTest", ptr %11, i32 0, i32 1
  invoke void @_ZN4i18n12phonenumbers12StringHolderC1ERKNSt7__cxx1112basic_stringIcSt11char_traitsIcESaIcEEE(ptr noundef nonnull align 8 dereferenceable(48) %9, ptr noundef nonnull align 8 dereferenceable(32) %14)
          to label %15 unwind label %22

15:                                               ; preds = %13
  invoke void @_ZN4i18n12phonenumbers12StringHolderC1EPKc(ptr noundef nonnull align 8 dereferenceable(48) %10, ptr noundef @.str.401)
          to label %16 unwind label %26

16:                                               ; preds = %15
  invoke void @_ZN4i18n12phonenumbers6StrCatB5cxx11ERKNS0_12StringHolderES3_S3_S3_(ptr dead_on_unwind writable sret(%"class.std::__cxx11::basic_string") align 8 %0, ptr noundef nonnull align 8 dereferenceable(48) %5, ptr noundef nonnull align 8 dereferenceable(48) %6, ptr noundef nonnull align 8 dereferenceable(48) %9, ptr noundef nonnull align 8 dereferenceable(48) %10)
          to label %17 unwind label %30

17:                                               ; preds = %16
  call void @_ZN4i18n12phonenumbers12StringHolderD1Ev(ptr noundef nonnull align 8 dereferenceable(48) %10) #3
  call void @_ZN4i18n12phonenumbers12StringHolderD1Ev(ptr noundef nonnull align 8 dereferenceable(48) %9) #3
  call void @_ZN4i18n12phonenumbers12StringHolderD1Ev(ptr noundef nonnull align 8 dereferenceable(48) %6) #3
  call void @_ZN4i18n12phonenumbers12StringHolderD1Ev(ptr noundef nonnull align 8 dereferenceable(48) %5) #3
  ret void

18:                                               ; preds = %2
  %19 = landingpad { ptr, i32 }
          cleanup
  %20 = extractvalue { ptr, i32 } %19, 0
  store ptr %20, ptr %7, align 8
  %21 = extractvalue { ptr, i32 } %19, 1
  store i32 %21, ptr %8, align 4
  br label %36

22:                                               ; preds = %13
  %23 = landingpad { ptr, i32 }
          cleanup
  %24 = extractvalue { ptr, i32 } %23, 0
  store ptr %24, ptr %7, align 8
  %25 = extractvalue { ptr, i32 } %23, 1
  store i32 %25, ptr %8, align 4
  br label %35

26:                                               ; preds = %15
  %27 = landingpad { ptr, i32 }
          cleanup
  %28 = extractvalue { ptr, i32 } %27, 0
  store ptr %28, ptr %7, align 8
  %29 = extractvalue { ptr, i32 } %27, 1
  store i32 %29, ptr %8, align 4
  br label %34

30:                                               ; preds = %16
  %31 = landingpad { ptr, i32 }
          cleanup
  %32 = extractvalue { ptr, i32 } %31, 0
  store ptr %32, ptr %7, align 8
  %33 = extractvalue { ptr, i32 } %31, 1
  store i32 %33, ptr %8, align 4
  call void @_ZN4i18n12phonenumbers12StringHolderD1Ev(ptr noundef nonnull align 8 dereferenceable(48) %10) #3
  br label %34

34:                                               ; preds = %30, %26
  call void @_ZN4i18n12phonenumbers12StringHolderD1Ev(ptr noundef nonnull align 8 dereferenceable(48) %9) #3
  br label %35

35:                                               ; preds = %34, %22
  call void @_ZN4i18n12phonenumbers12StringHolderD1Ev(ptr noundef nonnull align 8 dereferenceable(48) %6) #3
  br label %36

36:                                               ; preds = %35, %18
  call void @_ZN4i18n12phonenumbers12StringHolderD1Ev(ptr noundef nonnull align 8 dereferenceable(48) %5) #3
  br label %37

37:                                               ; preds = %36
  %38 = load ptr, ptr %7, align 8
  %39 = load i32, ptr %8, align 4
  %40 = insertvalue { ptr, i32 } poison, ptr %38, 0
  %41 = insertvalue { ptr, i32 } %40, i32 %39, 1
  resume { ptr, i32 } %41
}