; Function Attrs: mustprogress uwtable
define internal fastcc void @_ZNK4i18n12phonenumbers12_GLOBAL__N_110NumberTest8ToStringB5cxx11Ev(ptr dead_on_unwind noalias writable align 8 %0, ptr noundef nonnull align 8 dereferenceable(64) %1) unnamed_addr #3 align 2 personality ptr @__gxx_personality_v0 {
  %3 = alloca %"class.i18n::phonenumbers::StringHolder", align 8
  %4 = alloca %"class.i18n::phonenumbers::StringHolder", align 8
  %5 = alloca %"class.i18n::phonenumbers::StringHolder", align 8
  %6 = alloca %"class.i18n::phonenumbers::StringHolder", align 8
  call void @_ZN4i18n12phonenumbers12StringHolderC1ERKNSt7__cxx1112basic_stringIcSt11char_traitsIcESaIcEEE(ptr noundef nonnull align 8 dereferenceable(48) %3, ptr noundef nonnull align 8 dereferenceable(32) %1)
  invoke void @_ZN4i18n12phonenumbers12StringHolderC1EPKc(ptr noundef nonnull align 8 dereferenceable(48) %4, ptr noundef nonnull @.str.368)
          to label %7 unwind label %12

7:                                                ; preds = %2
  %8 = getelementptr inbounds i8, ptr %1, i64 32
  invoke void @_ZN4i18n12phonenumbers12StringHolderC1ERKNSt7__cxx1112basic_stringIcSt11char_traitsIcESaIcEEE(ptr noundef nonnull align 8 dereferenceable(48) %5, ptr noundef nonnull align 8 dereferenceable(32) %8)
          to label %9 unwind label %14

9:                                                ; preds = %7
  invoke void @_ZN4i18n12phonenumbers12StringHolderC1EPKc(ptr noundef nonnull align 8 dereferenceable(48) %6, ptr noundef nonnull @.str.401)
          to label %10 unwind label %16

10:                                               ; preds = %9
  invoke void @_ZN4i18n12phonenumbers6StrCatB5cxx11ERKNS0_12StringHolderES3_S3_S3_(ptr dead_on_unwind writable sret(%"class.std::__cxx11::basic_string") align 8 %0, ptr noundef nonnull align 8 dereferenceable(48) %3, ptr noundef nonnull align 8 dereferenceable(48) %4, ptr noundef nonnull align 8 dereferenceable(48) %5, ptr noundef nonnull align 8 dereferenceable(48) %6)
          to label %11 unwind label %18

11:                                               ; preds = %10
  call void @_ZN4i18n12phonenumbers12StringHolderD1Ev(ptr noundef nonnull align 8 dereferenceable(48) %6) #16
  call void @_ZN4i18n12phonenumbers12StringHolderD1Ev(ptr noundef nonnull align 8 dereferenceable(48) %5) #16
  call void @_ZN4i18n12phonenumbers12StringHolderD1Ev(ptr noundef nonnull align 8 dereferenceable(48) %4) #16
  call void @_ZN4i18n12phonenumbers12StringHolderD1Ev(ptr noundef nonnull align 8 dereferenceable(48) %3) #16
  ret void

12:                                               ; preds = %2
  %13 = landingpad { ptr, i32 }
          cleanup
  br label %22

14:                                               ; preds = %7
  %15 = landingpad { ptr, i32 }
          cleanup
  br label %21

16:                                               ; preds = %9
  %17 = landingpad { ptr, i32 }
          cleanup
  br label %20

18:                                               ; preds = %10
  %19 = landingpad { ptr, i32 }
          cleanup
  call void @_ZN4i18n12phonenumbers12StringHolderD1Ev(ptr noundef nonnull align 8 dereferenceable(48) %6) #16
  br label %20

20:                                               ; preds = %18, %16
  %.pn = phi { ptr, i32 } [ %19, %18 ], [ %17, %16 ]
  call void @_ZN4i18n12phonenumbers12StringHolderD1Ev(ptr noundef nonnull align 8 dereferenceable(48) %5) #16
  br label %21

21:                                               ; preds = %20, %14
  %.pn.pn = phi { ptr, i32 } [ %.pn, %20 ], [ %15, %14 ]
  call void @_ZN4i18n12phonenumbers12StringHolderD1Ev(ptr noundef nonnull align 8 dereferenceable(48) %4) #16
  br label %22

22:                                               ; preds = %21, %12
  %.pn.pn.pn = phi { ptr, i32 } [ %.pn.pn, %21 ], [ %13, %12 ]
  call void @_ZN4i18n12phonenumbers12StringHolderD1Ev(ptr noundef nonnull align 8 dereferenceable(48) %3) #16
  resume { ptr, i32 } %.pn.pn.pn
}